target datalayout = "e-m:e-p270:32:32-p271:32:32-p272:64:64-i64:64-i128:128-f80:128-n8:16:32:64-S128"
target triple = "x86_64-pc-linux-gnu"

%struct.PartitionBoundInfoData = type { i32, i32, ptr, ptr, ptr, i32, ptr, i32, i32 }
%struct.FmgrInfo = type { ptr, i32, i16, i8, i8, i8, ptr, ptr, ptr }

; Function Attrs: inlinehint nounwind uwtable
define internal i32 @DatumGetInt32(i64 noundef %0) #5 {
  %2 = alloca i64, align 8
  store i64 %0, ptr %2, align 8
  %3 = load i64, ptr %2, align 8
  %4 = trunc i64 %3 to i32
  ret i32 %4
}

; Function Attrs: nounwind uwtable
define dso_local i32 @partition_list_bsearch(ptr noundef %0, ptr noundef %1, ptr noundef %2, i64 noundef %3, ptr noundef %4) #0 {
  %6 = alloca ptr, align 8
  %7 = alloca ptr, align 8
  %8 = alloca ptr, align 8
  %9 = alloca i64, align 8
  %10 = alloca ptr, align 8
  %11 = alloca i32, align 4
  %12 = alloca i32, align 4
  %13 = alloca i32, align 4
  %14 = alloca i32, align 4
  %15 = alloca i32, align 4
  store ptr %0, ptr %6, align 8
  store ptr %1, ptr %7, align 8
  store ptr %2, ptr %8, align 8
  store i64 %3, ptr %9, align 8
  store ptr %4, ptr %10, align 8
  call void @llvm.lifetime.start.p0(i64 4, ptr %11) #9
  call void @llvm.lifetime.start.p0(i64 4, ptr %12) #9
  call void @llvm.lifetime.start.p0(i64 4, ptr %13) #9
  store i32 -1, ptr %11, align 4
  %16 = load ptr, ptr %8, align 8
  %17 = getelementptr inbounds nuw %struct.PartitionBoundInfoData, ptr %16, i32 0, i32 1
  %18 = load i32, ptr %17, align 4
  %19 = sub i32 %18, 1
  store i32 %19, ptr %12, align 4
  br label %20

20:                                               ; preds = %66, %5
  %21 = load i32, ptr %11, align 4
  %22 = load i32, ptr %12, align 4
  %23 = icmp slt i32 %21, %22
  br i1 %23, label %24, label %67

24:                                               ; preds = %20
  call void @llvm.lifetime.start.p0(i64 4, ptr %14) #9
  %25 = load i32, ptr %11, align 4
  %26 = load i32, ptr %12, align 4
  %27 = add i32 %25, %26
  %28 = add i32 %27, 1
  %29 = sdiv i32 %28, 2
  store i32 %29, ptr %13, align 4
  %30 = load ptr, ptr %6, align 8
  %31 = getelementptr inbounds %struct.FmgrInfo, ptr %30, i64 0
  %32 = load ptr, ptr %7, align 8
  %33 = getelementptr inbounds i32, ptr %32, i64 0
  %34 = load i32, ptr %33, align 4
  %35 = load ptr, ptr %8, align 8
  %36 = getelementptr inbounds nuw %struct.PartitionBoundInfoData, ptr %35, i32 0, i32 2
  %37 = load ptr, ptr %36, align 8
  %38 = load i32, ptr %13, align 4
  %39 = sext i32 %38 to i64
  %40 = getelementptr inbounds ptr, ptr %37, i64 %39
  %41 = load ptr, ptr %40, align 8
  %42 = getelementptr inbounds i64, ptr %41, i64 0
  %43 = load i64, ptr %42, align 8
  %44 = load i64, ptr %9, align 8
  %45 = call i64 @FunctionCall2Coll(ptr noundef %31, i32 noundef %34, i64 noundef %43, i64 noundef %44)
  %46 = call i32 @DatumGetInt32(i64 noundef %45)
  store i32 %46, ptr %14, align 4
  %47 = load i32, ptr %14, align 4
  %48 = icmp sle i32 %47, 0
  br i1 %48, label %49, label %60

49:                                               ; preds = %24
  %50 = load i32, ptr %13, align 4
  store i32 %50, ptr %11, align 4
  %51 = load i32, ptr %14, align 4
  %52 = icmp eq i32 %51, 0
  %53 = load ptr, ptr %10, align 8
  %54 = zext i1 %52 to i8
  store i8 %54, ptr %53, align 1
  %55 = load ptr, ptr %10, align 8
  %56 = load i8, ptr %55, align 1, !range !6, !noundef !7
  %57 = trunc i8 %56 to i1
  br i1 %57, label %58, label %59

58:                                               ; preds = %49
  store i32 3, ptr %15, align 4
  br label %64

59:                                               ; preds = %49
  br label %63

60:                                               ; preds = %24
  %61 = load i32, ptr %13, align 4
  %62 = sub i32 %61, 1
  store i32 %62, ptr %12, align 4
  br label %63

63:                                               ; preds = %60, %59
  store i32 0, ptr %15, align 4
  br label %64

64:                                               ; preds = %63, %58
  call void @llvm.lifetime.end.p0(i64 4, ptr %14) #9
  %65 = load i32, ptr %15, align 4
  switch i32 %65, label %69 [
    i32 0, label %66
    i32 3, label %67
  ]

66:                                               ; preds = %64
  br label %20, !llvm.loop !39

67:                                               ; preds = %64, %20
  %68 = load i32, ptr %11, align 4
  store i32 1, ptr %15, align 4
  call void @llvm.lifetime.end.p0(i64 4, ptr %13) #9
  call void @llvm.lifetime.end.p0(i64 4, ptr %12) #9
  call void @llvm.lifetime.end.p0(i64 4, ptr %11) #9
  ret i32 %68

69:                                               ; preds = %64
  unreachable
}