; Function Attrs: nounwind uwtable
define dso_local range(i32 -1073741824, 1073741824) i32 @partition_list_bsearch(ptr noundef %0, ptr noundef readonly captures(none) %1, ptr noundef readonly captures(none) %2, i64 noundef %3, ptr noundef writeonly captures(none) %4) local_unnamed_addr #0 {
  %6 = getelementptr inbounds nuw i8, ptr %2, i64 4
  %7 = load i32, ptr %6, align 4
  %8 = add i32 %7, -1
  %9 = icmp sgt i32 %8, -1
  br i1 %9, label %.lr.ph, label %.thread

.lr.ph:                                           ; preds = %5
  %10 = getelementptr inbounds nuw i8, ptr %2, i64 8
  br label %11

11:                                               ; preds = %.lr.ph, %29
  %.01727 = phi i32 [ -1, %.lr.ph ], [ %.2, %29 ]
  %.01826 = phi i32 [ %8, %.lr.ph ], [ %.119, %29 ]
  %12 = add i32 %.01826, 1
  %13 = add i32 %12, %.01727
  %14 = sdiv i32 %13, 2
  %15 = load i32, ptr %1, align 4
  %16 = load ptr, ptr %10, align 8
  %17 = sext i32 %14 to i64
  %18 = getelementptr inbounds ptr, ptr %16, i64 %17
  %19 = load ptr, ptr %18, align 8
  %20 = load i64, ptr %19, align 8
  %21 = tail call i64 @FunctionCall2Coll(ptr noundef %0, i32 noundef %15, i64 noundef %20, i64 noundef %3) #12
  %22 = trunc i64 %21 to i32
  %23 = icmp slt i32 %22, 1
  br i1 %23, label %24, label %27

24:                                               ; preds = %11
  %25 = icmp eq i32 %22, 0
  %26 = zext i1 %25 to i8
  store i8 %26, ptr %4, align 1
  br i1 %25, label %.thread, label %29

27:                                               ; preds = %11
  %28 = add nsw i32 %14, -1
  br label %29

29:                                               ; preds = %24, %27
  %.119 = phi i32 [ %28, %27 ], [ %.01826, %24 ]
  %.2 = phi i32 [ %.01727, %27 ], [ %14, %24 ]
  %30 = icmp slt i32 %.2, %.119
  br i1 %30, label %11, label %.thread

.thread:                                          ; preds = %29, %24, %5
  %.1 = phi i32 [ -1, %5 ], [ %14, %24 ], [ %.2, %29 ]
  ret i32 %.1
}